; Function Attrs: mustprogress nounwind uwtable
define hidden void @_ZN6hermes2vm23NativeFunctionBuildMetaEPKNS0_6GCCellERNS0_8Metadata7BuilderE(ptr noundef %cell, ptr noundef nonnull align 8 dereferenceable(224) %mb) local_unnamed_addr #0 {
entry:
  %hasValue_.i.i = getelementptr inbounds nuw i8, ptr %mb, i64 212
  %0 = load i8, ptr %hasValue_.i.i, align 4
  %tobool.i.i = trunc i8 %0 to i1
  br i1 %tobool.i.i, label %_ZN6hermes2vm8Metadata7Builder23addJSObjectOverlapSlotsEj.exit, label %_ZN6hermes2vm17CallableBuildMetaEPKNS0_6GCCellERNS0_8Metadata7BuilderE.exit.sink.split

_ZN6hermes2vm8Metadata7Builder23addJSObjectOverlapSlotsEj.exit: ; preds = %entry
  %tobool.i.i.i = trunc i8 %0 to i1
  br i1 %tobool.i.i.i, label %_ZN6hermes2vm17CallableBuildMetaEPKNS0_6GCCellERNS0_8Metadata7BuilderE.exit, label %_ZN6hermes2vm17CallableBuildMetaEPKNS0_6GCCellERNS0_8Metadata7BuilderE.exit.sink.split

_ZN6hermes2vm17CallableBuildMetaEPKNS0_6GCCellERNS0_8Metadata7BuilderE.exit.sink.split: ; preds = %_ZN6hermes2vm8Metadata7Builder23addJSObjectOverlapSlotsEj.exit, %entry
  %.sink = phi i32 [ 5, %entry ], [ 1, %_ZN6hermes2vm8Metadata7Builder23addJSObjectOverlapSlotsEj.exit ]
  %jsObjectOverlapSlots_.i = getelementptr inbounds nuw i8, ptr %mb, i64 208
  store i32 %.sink, ptr %jsObjectOverlapSlots_.i, align 8
  store i8 1, ptr %hasValue_.i.i, align 4
  br label %_ZN6hermes2vm17CallableBuildMetaEPKNS0_6GCCellERNS0_8Metadata7BuilderE.exit

_ZN6hermes2vm17CallableBuildMetaEPKNS0_6GCCellERNS0_8Metadata7BuilderE.exit: ; preds = %_ZN6hermes2vm17CallableBuildMetaEPKNS0_6GCCellERNS0_8Metadata7BuilderE.exit.sink.split, %_ZN6hermes2vm8Metadata7Builder23addJSObjectOverlapSlotsEj.exit
  tail call void @_ZN6hermes2vm17JSObjectBuildMetaEPKNS0_6GCCellERNS0_8Metadata7BuilderE(ptr noundef %cell, ptr noundef nonnull align 8 dereferenceable(224) %mb) #11
  %vtp_.i.i = getelementptr inbounds nuw i8, ptr %mb, i64 216
  store ptr @_ZN6hermes2vm8JSObject2vtE, ptr %vtp_.i.i, align 8
  %environment_.i = getelementptr inbounds nuw i8, ptr %cell, i64 20
  tail call void @_ZN6hermes2vm8Metadata7Builder8addFieldEPKcPKNS0_13GCPointerBaseE(ptr noundef nonnull align 8 dereferenceable(224) %mb, ptr noundef nonnull @.str.1, ptr noundef nonnull %environment_.i) #11
  store ptr @_ZN6hermes2vm14NativeFunction2vtE, ptr %vtp_.i.i, align 8
  ret void
}